target datalayout = "e-m:e-p270:32:32-p271:32:32-p272:64:64-i64:64-i128:128-f80:128-n8:16:32:64-S128"
target triple = "x86_64-pc-linux-gnu"

%"class.LIEF::PE::ResourceAccelerator" = type { %"class.LIEF::Object", i16, i16, i16, i16 }
%"class.LIEF::Object" = type { ptr }
%"struct.LIEF::PE::details::pe_resource_acceltableentry" = type { i16, i16, i16, i16 }

; Function Attrs: mustprogress nounwind uwtable
define void @_ZN4LIEF2PE19ResourceAcceleratorC2ERKNS0_7details27pe_resource_acceltableentryE(ptr noundef nonnull align 8 dereferenceable(16) %0, ptr noundef nonnull align 1 dereferenceable(8) %1) unnamed_addr #0 align 2 {
  %3 = alloca ptr, align 8
  %4 = alloca ptr, align 8
  store ptr %0, ptr %3, align 8, !tbaa !3
  store ptr %1, ptr %4, align 8, !tbaa !8
  %5 = load ptr, ptr %3, align 8
  call void @_ZN4LIEF6ObjectC2Ev(ptr noundef nonnull align 8 dereferenceable(8) %5)
  store ptr getelementptr inbounds inrange(-16, 40) ({ [7 x ptr] }, ptr @_ZTVN4LIEF2PE19ResourceAcceleratorE, i32 0, i32 0, i32 2), ptr %5, align 8, !tbaa !10
  %6 = getelementptr inbounds nuw %"class.LIEF::PE::ResourceAccelerator", ptr %5, i32 0, i32 1
  %7 = load ptr, ptr %4, align 8, !tbaa !8
  %8 = getelementptr inbounds nuw %"struct.LIEF::PE::details::pe_resource_acceltableentry", ptr %7, i32 0, i32 0
  %9 = load i16, ptr %8, align 1, !tbaa !12
  store i16 %9, ptr %6, align 8, !tbaa !15
  %10 = getelementptr inbounds nuw %"class.LIEF::PE::ResourceAccelerator", ptr %5, i32 0, i32 2
  %11 = load ptr, ptr %4, align 8, !tbaa !8
  %12 = getelementptr inbounds nuw %"struct.LIEF::PE::details::pe_resource_acceltableentry", ptr %11, i32 0, i32 1
  %13 = load i16, ptr %12, align 1, !tbaa !18
  store i16 %13, ptr %10, align 2, !tbaa !19
  %14 = getelementptr inbounds nuw %"class.LIEF::PE::ResourceAccelerator", ptr %5, i32 0, i32 3
  %15 = load ptr, ptr %4, align 8, !tbaa !8
  %16 = getelementptr inbounds nuw %"struct.LIEF::PE::details::pe_resource_acceltableentry", ptr %15, i32 0, i32 2
  %17 = load i16, ptr %16, align 1, !tbaa !20
  store i16 %17, ptr %14, align 4, !tbaa !21
  %18 = getelementptr inbounds nuw %"class.LIEF::PE::ResourceAccelerator", ptr %5, i32 0, i32 4
  %19 = load ptr, ptr %4, align 8, !tbaa !8
  %20 = getelementptr inbounds nuw %"struct.LIEF::PE::details::pe_resource_acceltableentry", ptr %19, i32 0, i32 3
  %21 = load i16, ptr %20, align 1, !tbaa !22
  store i16 %21, ptr %18, align 2, !tbaa !23
  ret void
}