; Function Attrs: mustprogress nounwind uwtable
define void @_ZN4LIEF2PE19ResourceAcceleratorC2ERKNS0_7details27pe_resource_acceltableentryE(ptr noundef nonnull align 8 dereferenceable(16) %0, ptr noundef nonnull readonly align 1 captures(none) dereferenceable(8) %1) unnamed_addr #0 align 2 {
  tail call void @_ZN4LIEF6ObjectC2Ev(ptr noundef nonnull align 8 dereferenceable(8) %0) #22
  store ptr getelementptr inbounds nuw inrange(-16, 40) (i8, ptr @_ZTVN4LIEF2PE19ResourceAcceleratorE, i64 16), ptr %0, align 8, !tbaa !3
  %3 = getelementptr inbounds nuw i8, ptr %0, i64 8
  %4 = load i16, ptr %1, align 1, !tbaa !6
  store i16 %4, ptr %3, align 8, !tbaa !10
  %5 = getelementptr inbounds nuw i8, ptr %0, i64 10
  %6 = getelementptr inbounds nuw i8, ptr %1, i64 2
  %7 = load i16, ptr %6, align 1, !tbaa !13
  store i16 %7, ptr %5, align 2, !tbaa !14
  %8 = getelementptr inbounds nuw i8, ptr %0, i64 12
  %9 = getelementptr inbounds nuw i8, ptr %1, i64 4
  %10 = load i16, ptr %9, align 1, !tbaa !15
  store i16 %10, ptr %8, align 4, !tbaa !16
  %11 = getelementptr inbounds nuw i8, ptr %0, i64 14
  %12 = getelementptr inbounds nuw i8, ptr %1, i64 6
  %13 = load i16, ptr %12, align 1, !tbaa !17
  store i16 %13, ptr %11, align 2, !tbaa !18
  ret void
}